target datalayout = "e-m:e-p270:32:32-p271:32:32-p272:64:64-i64:64-i128:128-f80:128-n8:16:32:64-S128"
target triple = "x86_64-pc-linux-gnu"

; Function Attrs: mustprogress nounwind uwtable
define hidden noundef zeroext i1 @_ZN4cvc58internal6theory11quantifiers8TermUtil16isBoolConnectiveENS0_4kind6Kind_tE(i32 noundef %0) #7 align 2 {
  %2 = alloca i32, align 4
  store i32 %0, ptr %2, align 4, !tbaa !50
  %3 = load i32, ptr %2, align 4, !tbaa !50
  %4 = icmp eq i32 %3, 24
  br i1 %4, label %23, label %5

5:                                                ; preds = %1
  %6 = load i32, ptr %2, align 4, !tbaa !50
  %7 = icmp eq i32 %6, 22
  br i1 %7, label %23, label %8

8:                                                ; preds = %5
  %9 = load i32, ptr %2, align 4, !tbaa !50
  %10 = icmp eq i32 %9, 5
  br i1 %10, label %23, label %11

11:                                               ; preds = %8
  %12 = load i32, ptr %2, align 4, !tbaa !50
  %13 = icmp eq i32 %12, 26
  br i1 %13, label %23, label %14

14:                                               ; preds = %11
  %15 = load i32, ptr %2, align 4, !tbaa !50
  %16 = icmp eq i32 %15, 365
  br i1 %16, label %23, label %17

17:                                               ; preds = %14
  %18 = load i32, ptr %2, align 4, !tbaa !50
  %19 = icmp eq i32 %18, 21
  br i1 %19, label %23, label %20

20:                                               ; preds = %17
  %21 = load i32, ptr %2, align 4, !tbaa !50
  %22 = icmp eq i32 %21, 249
  br label %23

23:                                               ; preds = %20, %17, %14, %11, %8, %5, %1
  %24 = phi i1 [ true, %17 ], [ true, %14 ], [ true, %11 ], [ true, %8 ], [ true, %5 ], [ true, %1 ], [ %22, %20 ]
  ret i1 %24
}